; Function Attrs: nounwind uwtable
define internal ptr @_random_Random_seed(ptr noundef captures(none) %0, ptr noundef readonly captures(none) %1, i64 noundef %2) #0 {
  %or.cond = icmp ult i64 %2, 2
  br i1 %or.cond, label %6, label %4

4:                                                ; preds = %3
  %5 = tail call i32 @_PyArg_CheckPositional(ptr noundef nonnull @.str.7, i64 noundef %2, i64 noundef 0, i64 noundef 1) #8
  %.not = icmp eq i32 %5, 0
  br i1 %.not, label %13, label %6

6:                                                ; preds = %3, %4
  %7 = icmp slt i64 %2, 1
  br i1 %7, label %10, label %8

8:                                                ; preds = %6
  %9 = load ptr, ptr %1, align 8, !tbaa !14
  br label %10

10:                                               ; preds = %6, %8
  %.0 = phi ptr [ @_Py_NoneStruct, %6 ], [ %9, %8 ]
  %11 = tail call fastcc i32 @random_seed(ptr noundef %0, ptr noundef %.0)
  %12 = icmp slt i32 %11, 0
  %._Py_NoneStruct.i = select i1 %12, ptr null, ptr @_Py_NoneStruct
  br label %13

13:                                               ; preds = %4, %10
  %.08 = phi ptr [ %._Py_NoneStruct.i, %10 ], [ null, %4 ]
  ret ptr %.08
}